; ModuleID = '22/28.c'
source_filename = "22/28.c"
target datalayout = "e-m:e-p270:32:32-p271:32:32-p272:64:64-i64:64-f80:128-n8:16:32:64-S128"
target triple = "x86_64-pc-linux-gnu"

@.str = private unnamed_addr constant [3 x i8] c"%d\00", align 1
@.str.1 = private unnamed_addr constant [3 x i8] c"No\00", align 1
@.str.2 = private unnamed_addr constant [2 x i8] c"\0A\00", align 1

; Function Attrs: noinline nounwind uwtable
define dso_local void @change(i32* %0, i32 %1) #0 {
  %3 = alloca i32*, align 8
  %4 = alloca i32, align 4
  %5 = alloca i32, align 4
  %6 = alloca i32, align 4
  %7 = alloca i32, align 4
  store i32* %0, i32** %3, align 8
  store i32 %1, i32* %4, align 4
  store i32 0, i32* %5, align 4
  br label %8

8:                                                ; preds = %57, %2
  %9 = load i32, i32* %5, align 4
  %10 = load i32, i32* %4, align 4
  %11 = sub nsw i32 %10, 1
  %12 = icmp slt i32 %9, %11
  br i1 %12, label %13, label %60

13:                                               ; preds = %8
  %14 = load i32, i32* %5, align 4
  %15 = add nsw i32 %14, 1
  store i32 %15, i32* %6, align 4
  br label %16

16:                                               ; preds = %53, %13
  %17 = load i32, i32* %6, align 4
  %18 = load i32, i32* %4, align 4
  %19 = icmp slt i32 %17, %18
  br i1 %19, label %20, label %56

20:                                               ; preds = %16
  %21 = load i32*, i32** %3, align 8
  %22 = load i32, i32* %5, align 4
  %23 = sext i32 %22 to i64
  %24 = getelementptr inbounds i32, i32* %21, i64 %23
  %25 = load i32, i32* %24, align 4
  %26 = load i32*, i32** %3, align 8
  %27 = load i32, i32* %6, align 4
  %28 = sext i32 %27 to i64
  %29 = getelementptr inbounds i32, i32* %26, i64 %28
  %30 = load i32, i32* %29, align 4
  %31 = icmp sgt i32 %25, %30
  br i1 %31, label %32, label %52

32:                                               ; preds = %20
  %33 = load i32*, i32** %3, align 8
  %34 = load i32, i32* %5, align 4
  %35 = sext i32 %34 to i64
  %36 = getelementptr inbounds i32, i32* %33, i64 %35
  %37 = load i32, i32* %36, align 4
  store i32 %37, i32* %7, align 4
  %38 = load i32*, i32** %3, align 8
  %39 = load i32, i32* %6, align 4
  %40 = sext i32 %39 to i64
  %41 = getelementptr inbounds i32, i32* %38, i64 %40
  %42 = load i32, i32* %41, align 4
  %43 = load i32*, i32** %3, align 8
  %44 = load i32, i32* %5, align 4
  %45 = sext i32 %44 to i64
  %46 = getelementptr inbounds i32, i32* %43, i64 %45
  store i32 %42, i32* %46, align 4
  %47 = load i32, i32* %7, align 4
  %48 = load i32*, i32** %3, align 8
  %49 = load i32, i32* %6, align 4
  %50 = sext i32 %49 to i64
  %51 = getelementptr inbounds i32, i32* %48, i64 %50
  store i32 %47, i32* %51, align 4
  br label %52

52:                                               ; preds = %32, %20
  br label %53

53:                                               ; preds = %52
  %54 = load i32, i32* %6, align 4
  %55 = add nsw i32 %54, 1
  store i32 %55, i32* %6, align 4
  br label %16

56:                                               ; preds = %16
  br label %57

57:                                               ; preds = %56
  %58 = load i32, i32* %5, align 4
  %59 = add nsw i32 %58, 1
  store i32 %59, i32* %5, align 4
  br label %8

60:                                               ; preds = %8
  ret void
}

; Function Attrs: noinline nounwind uwtable
define dso_local i32 @min(i32 %0, i32 %1) #0 {
  %3 = alloca i32, align 4
  %4 = alloca i32, align 4
  %5 = alloca i32, align 4
  store i32 %0, i32* %3, align 4
  store i32 %1, i32* %4, align 4
  %6 = load i32, i32* %3, align 4
  %7 = load i32, i32* %4, align 4
  %8 = icmp slt i32 %6, %7
  br i1 %8, label %9, label %11

9:                                                ; preds = %2
  %10 = load i32, i32* %3, align 4
  store i32 %10, i32* %5, align 4
  br label %13

11:                                               ; preds = %2
  %12 = load i32, i32* %4, align 4
  store i32 %12, i32* %5, align 4
  br label %13

13:                                               ; preds = %11, %9
  %14 = load i32, i32* %5, align 4
  ret i32 %14
}

; Function Attrs: noinline nounwind uwtable
define dso_local i32 @MAX(i32 %0, i32 %1) #0 {
  %3 = alloca i32, align 4
  %4 = alloca i32, align 4
  %5 = alloca i32, align 4
  store i32 %0, i32* %3, align 4
  store i32 %1, i32* %4, align 4
  %6 = load i32, i32* %3, align 4
  %7 = load i32, i32* %4, align 4
  %8 = icmp sgt i32 %6, %7
  br i1 %8, label %9, label %11

9:                                                ; preds = %2
  %10 = load i32, i32* %3, align 4
  store i32 %10, i32* %5, align 4
  br label %13

11:                                               ; preds = %2
  %12 = load i32, i32* %4, align 4
  store i32 %12, i32* %5, align 4
  br label %13

13:                                               ; preds = %11, %9
  %14 = load i32, i32* %5, align 4
  ret i32 %14
}

; Function Attrs: noinline nounwind uwtable
define dso_local void @main() #0 {
  %1 = alloca [300 x i32], align 16
  %2 = alloca i32, align 4
  %3 = alloca i32, align 4
  %4 = alloca i32, align 4
  %5 = alloca i32, align 4
  %6 = alloca i32, align 4
  %7 = alloca i8, align 1
  store i32 0, i32* %4, align 4
  store i32 0, i32* %5, align 4
  store i32 0, i32* %6, align 4
  store i8 44, i8* %7, align 1
  store i32 0, i32* %2, align 4
  br label %8

8:                                                ; preds = %19, %0
  %9 = load i8, i8* %7, align 1
  %10 = sext i8 %9 to i32
  %11 = icmp eq i32 %10, 44
  br i1 %11, label %12, label %22

12:                                               ; preds = %8
  %13 = load i32, i32* %2, align 4
  %14 = sext i32 %13 to i64
  %15 = getelementptr inbounds [300 x i32], [300 x i32]* %1, i64 0, i64 %14
  %16 = call i32 (i8*, ...) @__isoc99_scanf(i8* getelementptr inbounds ([3 x i8], [3 x i8]* @.str, i64 0, i64 0), i32* %15)
  %17 = call i32 @getchar()
  %18 = trunc i32 %17 to i8
  store i8 %18, i8* %7, align 1
  br label %19

19:                                               ; preds = %12
  %20 = load i32, i32* %2, align 4
  %21 = add nsw i32 %20, 1
  store i32 %21, i32* %2, align 4
  br label %8

22:                                               ; preds = %8
  %23 = load i32, i32* %2, align 4
  store i32 %23, i32* %3, align 4
  %24 = load i32, i32* %3, align 4
  %25 = icmp eq i32 %24, 1
  br i1 %25, label %26, label %28

26:                                               ; preds = %22
  %27 = call i32 (i8*, ...) @printf(i8* getelementptr inbounds ([3 x i8], [3 x i8]* @.str.1, i64 0, i64 0))
  br label %75

28:                                               ; preds = %22
  store i32 0, i32* %2, align 4
  br label %29

29:                                               ; preds = %40, %28
  %30 = load i32, i32* %2, align 4
  %31 = load i32, i32* %3, align 4
  %32 = icmp slt i32 %30, %31
  br i1 %32, label %33, label %43

33:                                               ; preds = %29
  %34 = load i32, i32* %4, align 4
  %35 = load i32, i32* %2, align 4
  %36 = sext i32 %35 to i64
  %37 = getelementptr inbounds [300 x i32], [300 x i32]* %1, i64 0, i64 %36
  %38 = load i32, i32* %37, align 4
  %39 = call i32 @MAX(i32 %34, i32 %38)
  store i32 %39, i32* %4, align 4
  br label %40

40:                                               ; preds = %33
  %41 = load i32, i32* %2, align 4
  %42 = add nsw i32 %41, 1
  store i32 %42, i32* %2, align 4
  br label %29

43:                                               ; preds = %29
  store i32 0, i32* %2, align 4
  br label %44

44:                                               ; preds = %63, %43
  %45 = load i32, i32* %2, align 4
  %46 = load i32, i32* %3, align 4
  %47 = icmp slt i32 %45, %46
  br i1 %47, label %48, label %66

48:                                               ; preds = %44
  %49 = load i32, i32* %2, align 4
  %50 = sext i32 %49 to i64
  %51 = getelementptr inbounds [300 x i32], [300 x i32]* %1, i64 0, i64 %50
  %52 = load i32, i32* %51, align 4
  %53 = load i32, i32* %4, align 4
  %54 = icmp slt i32 %52, %53
  br i1 %54, label %55, label %62

55:                                               ; preds = %48
  %56 = load i32, i32* %5, align 4
  %57 = load i32, i32* %2, align 4
  %58 = sext i32 %57 to i64
  %59 = getelementptr inbounds [300 x i32], [300 x i32]* %1, i64 0, i64 %58
  %60 = load i32, i32* %59, align 4
  %61 = call i32 @MAX(i32 %56, i32 %60)
  store i32 %61, i32* %5, align 4
  store i32 1, i32* %6, align 4
  br label %62

62:                                               ; preds = %55, %48
  br label %63

63:                                               ; preds = %62
  %64 = load i32, i32* %2, align 4
  %65 = add nsw i32 %64, 1
  store i32 %65, i32* %2, align 4
  br label %44

66:                                               ; preds = %44
  %67 = load i32, i32* %6, align 4
  %68 = icmp eq i32 %67, 0
  br i1 %68, label %69, label %71

69:                                               ; preds = %66
  %70 = call i32 (i8*, ...) @printf(i8* getelementptr inbounds ([3 x i8], [3 x i8]* @.str.1, i64 0, i64 0))
  br label %74

71:                                               ; preds = %66
  %72 = load i32, i32* %5, align 4
  %73 = call i32 (i8*, ...) @printf(i8* getelementptr inbounds ([3 x i8], [3 x i8]* @.str, i64 0, i64 0), i32 %72)
  br label %74

74:                                               ; preds = %71, %69
  br label %75

75:                                               ; preds = %74, %26
  %76 = call i32 (i8*, ...) @printf(i8* getelementptr inbounds ([2 x i8], [2 x i8]* @.str.2, i64 0, i64 0))
  ret void
}

declare dso_local i32 @__isoc99_scanf(i8*, ...) #1

declare dso_local i32 @getchar() #1

declare dso_local i32 @printf(i8*, ...) #1


!llvm.module.flags = !{!0}
!llvm.ident = !{!1}

!0 = !{i32 1, !"wchar_size", i32 4}
!1 = !{!"clang version 10.0.0-4ubuntu1 "}
